target datalayout = "e-m:e-p270:32:32-p271:32:32-p272:64:64-i64:64-i128:128-f80:128-n8:16:32:64-S128"
target triple = "x86_64-pc-linux-gnu"

%class.Block = type { %class.Statement, %"class.std::vector.8", %"class.std::vector.8", %"class.std::vector.13", %"class.std::map.18", i8, i8, i8, %"class.std::vector.26", i8, i32 }
%class.Statement = type { ptr, i32, i32, ptr, ptr }
%"class.std::vector.8" = type { %"struct.std::_Vector_base.9" }
%"struct.std::_Vector_base.9" = type { %"struct.std::_Vector_base<Statement *, std::allocator<Statement *>>::_Vector_impl" }
%"struct.std::_Vector_base<Statement *, std::allocator<Statement *>>::_Vector_impl" = type { %"struct.std::_Vector_base<Statement *, std::allocator<Statement *>>::_Vector_impl_data" }
%"struct.std::_Vector_base<Statement *, std::allocator<Statement *>>::_Vector_impl_data" = type { ptr, ptr, ptr }
%"class.std::vector.13" = type { %"struct.std::_Vector_base.14" }
%"struct.std::_Vector_base.14" = type { %"struct.std::_Vector_base<Variable *, std::allocator<Variable *>>::_Vector_impl" }
%"struct.std::_Vector_base<Variable *, std::allocator<Variable *>>::_Vector_impl" = type { %"struct.std::_Vector_base<Variable *, std::allocator<Variable *>>::_Vector_impl_data" }
%"struct.std::_Vector_base<Variable *, std::allocator<Variable *>>::_Vector_impl_data" = type { ptr, ptr, ptr }
%"class.std::map.18" = type { %"class.std::_Rb_tree.19" }
%"class.std::_Rb_tree.19" = type { %"struct.std::_Rb_tree<std::__cxx11::basic_string<char>, std::pair<const std::__cxx11::basic_string<char>, eSimpleType>, std::_Select1st<std::pair<const std::__cxx11::basic_string<char>, eSimpleType>>, std::less<std::__cxx11::basic_string<char>>>::_Rb_tree_impl" }
%"struct.std::_Rb_tree<std::__cxx11::basic_string<char>, std::pair<const std::__cxx11::basic_string<char>, eSimpleType>, std::_Select1st<std::pair<const std::__cxx11::basic_string<char>, eSimpleType>>, std::less<std::__cxx11::basic_string<char>>>::_Rb_tree_impl" = type { %"struct.std::_Rb_tree_key_compare.23", %"struct.std::_Rb_tree_header" }
%"struct.std::_Rb_tree_key_compare.23" = type { %"struct.std::less.24" }
%"struct.std::less.24" = type { i8 }
%"struct.std::_Rb_tree_header" = type { %"struct.std::_Rb_tree_node_base", i64 }
%"struct.std::_Rb_tree_node_base" = type { i32, ptr, ptr, ptr }
%"class.std::vector.26" = type { %"struct.std::_Vector_base.27" }
%"struct.std::_Vector_base.27" = type { %"struct.std::_Vector_base<const Statement *, std::allocator<const Statement *>>::_Vector_impl" }
%"struct.std::_Vector_base<const Statement *, std::allocator<const Statement *>>::_Vector_impl" = type { %"struct.std::_Vector_base<const Statement *, std::allocator<const Statement *>>::_Vector_impl_data" }
%"struct.std::_Vector_base<const Statement *, std::allocator<const Statement *>>::_Vector_impl_data" = type { ptr, ptr, ptr }
%class.CGContext = type { ptr, i32, i32, i32, %"class.std::vector", ptr, ptr, %"class.std::map", ptr, ptr, ptr, %class.Effect }
%"class.std::vector" = type { %"struct.std::_Vector_base" }
%"struct.std::_Vector_base" = type { %"struct.std::_Vector_base<const Block *, std::allocator<const Block *>>::_Vector_impl" }
%"struct.std::_Vector_base<const Block *, std::allocator<const Block *>>::_Vector_impl" = type { %"struct.std::_Vector_base<const Block *, std::allocator<const Block *>>::_Vector_impl_data" }
%"struct.std::_Vector_base<const Block *, std::allocator<const Block *>>::_Vector_impl_data" = type { ptr, ptr, ptr }
%"class.std::map" = type { %"class.std::_Rb_tree" }
%"class.std::_Rb_tree" = type { %"struct.std::_Rb_tree<const Variable *, std::pair<const Variable *const, unsigned int>, std::_Select1st<std::pair<const Variable *const, unsigned int>>, std::less<const Variable *>>::_Rb_tree_impl" }
%"struct.std::_Rb_tree<const Variable *, std::pair<const Variable *const, unsigned int>, std::_Select1st<std::pair<const Variable *const, unsigned int>>, std::less<const Variable *>>::_Rb_tree_impl" = type { %"struct.std::_Rb_tree_key_compare", %"struct.std::_Rb_tree_header" }
%"struct.std::_Rb_tree_key_compare" = type { %"struct.std::less" }
%"struct.std::less" = type { i8 }
%class.Effect = type <{ %"class.std::vector.3", %"class.std::vector.3", %"class.std::vector.3", i8, i8, [6 x i8] }>
%"class.std::vector.3" = type { %"struct.std::_Vector_base.4" }
%"struct.std::_Vector_base.4" = type { %"struct.std::_Vector_base<const Variable *, std::allocator<const Variable *>>::_Vector_impl" }
%"struct.std::_Vector_base<const Variable *, std::allocator<const Variable *>>::_Vector_impl" = type { %"struct.std::_Vector_base<const Variable *, std::allocator<const Variable *>>::_Vector_impl_data" }
%"struct.std::_Vector_base<const Variable *, std::allocator<const Variable *>>::_Vector_impl_data" = type { ptr, ptr, ptr }

@_ZN5Error8r_error_E = external global i32, align 4
@_ZN17StatementContinueC1EP5BlockRK10ExpressionRKS0_ = dso_local unnamed_addr alias void (ptr, ptr, ptr, ptr), ptr @_ZN17StatementContinueC2EP5BlockRK10ExpressionRKS0_

; Function Attrs: mustprogress nounwind uwtable
define linkonce_odr dso_local noundef i32 @_ZN5Error9get_errorEv() #5 comdat align 2 {
  %1 = load i32, ptr @_ZN5Error8r_error_E, align 4
  ret i32 %1
}

; Function Attrs: mustprogress nounwind uwtable
define linkonce_odr dso_local noundef nonnull align 8 dereferenceable(74) ptr @_ZN9CGContext14get_effect_stmEv(ptr noundef nonnull align 8 dereferenceable(216) %0) #5 comdat align 2 {
  %2 = alloca ptr, align 8
  store ptr %0, ptr %2, align 8
  %3 = load ptr, ptr %2, align 8
  %4 = getelementptr inbounds %class.CGContext, ptr %3, i32 0, i32 11
  ret ptr %4
}

; Function Attrs: mustprogress uwtable
define dso_local noundef ptr @_ZN17StatementContinue11make_randomER9CGContext(ptr noundef nonnull align 8 dereferenceable(216) %0) #4 align 2 personality ptr @__gxx_personality_v0 {
  %2 = alloca ptr, align 8
  %3 = alloca ptr, align 8
  %4 = alloca ptr, align 8
  %5 = alloca ptr, align 8
  %6 = alloca ptr, align 8
  %7 = alloca ptr, align 8
  %8 = alloca ptr, align 8
  %9 = alloca ptr, align 8
  %10 = alloca i32, align 4
  store ptr %0, ptr %3, align 8
  %11 = load ptr, ptr %3, align 8
  %12 = call noundef ptr @_Z12get_fact_mgrPK9CGContext(ptr noundef %11)
  store ptr %12, ptr %4, align 8
  %13 = load ptr, ptr %3, align 8
  %14 = call noundef ptr @_ZNK9CGContext17get_current_blockEv(ptr noundef nonnull align 8 dereferenceable(216) %13)
  store ptr %14, ptr %5, align 8
  %15 = load ptr, ptr %5, align 8
  %16 = call noundef ptr @_ZNK5Block12get_last_stmEv(ptr noundef nonnull align 8 dereferenceable(192) %15)
  store ptr %16, ptr %6, align 8
  %17 = load ptr, ptr %6, align 8
  %18 = icmp eq ptr %17, null
  br i1 %18, label %19, label %20

19:                                               ; preds = %1
  store ptr null, ptr %2, align 8
  br label %61

20:                                               ; preds = %1
  br label %21

21:                                               ; preds = %32, %20
  %22 = load ptr, ptr %5, align 8
  %23 = icmp ne ptr %22, null
  br i1 %23, label %24, label %30

24:                                               ; preds = %21
  %25 = load ptr, ptr %5, align 8
  %26 = getelementptr inbounds %class.Block, ptr %25, i32 0, i32 5
  %27 = load i8, ptr %26, align 8
  %28 = trunc i8 %27 to i1
  %29 = xor i1 %28, true
  br label %30

30:                                               ; preds = %24, %21
  %31 = phi i1 [ false, %21 ], [ %29, %24 ]
  br i1 %31, label %32, label %36

32:                                               ; preds = %30
  %33 = load ptr, ptr %5, align 8
  %34 = getelementptr inbounds %class.Statement, ptr %33, i32 0, i32 4
  %35 = load ptr, ptr %34, align 8
  store ptr %35, ptr %5, align 8
  br label %21, !llvm.loop !5

36:                                               ; preds = %30
  %37 = load ptr, ptr %3, align 8
  %38 = call noundef nonnull align 8 dereferenceable(74) ptr @_ZN9CGContext14get_effect_stmEv(ptr noundef nonnull align 8 dereferenceable(216) %37)
  call void @_ZN6Effect5clearEv(ptr noundef nonnull align 8 dereferenceable(74) %38)
  %39 = load ptr, ptr %3, align 8
  %40 = call noundef ptr @_Z12get_int_typev()
  %41 = call noundef ptr @_ZN10Expression11make_randomER9CGContextPK4TypePK12CVQualifiersbb9eTermType(ptr noundef nonnull align 8 dereferenceable(216) %39, ptr noundef %40, ptr noundef null, i1 noundef zeroext true, i1 noundef zeroext true, i32 noundef 1)
  store ptr %41, ptr %7, align 8
  %42 = call noundef i32 @_ZN5Error9get_errorEv()
  %43 = icmp ne i32 %42, 0
  br i1 %43, label %44, label %45

44:                                               ; preds = %36
  store ptr null, ptr %2, align 8
  br label %61

45:                                               ; preds = %36
  %46 = call noalias noundef nonnull ptr @_Znwm(i64 noundef 48) #12
  %47 = load ptr, ptr %3, align 8
  %48 = invoke noundef ptr @_ZNK9CGContext17get_current_blockEv(ptr noundef nonnull align 8 dereferenceable(216) %47)
          to label %49 unwind label %57

49:                                               ; preds = %45
  %50 = load ptr, ptr %7, align 8
  %51 = load ptr, ptr %5, align 8
  invoke void @_ZN17StatementContinueC1EP5BlockRK10ExpressionRKS0_(ptr noundef nonnull align 8 dereferenceable(48) %46, ptr noundef %48, ptr noundef nonnull align 8 dereferenceable(24) %50, ptr noundef nonnull align 8 dereferenceable(192) %51)
          to label %52 unwind label %57

52:                                               ; preds = %49
  store ptr %46, ptr %8, align 8
  %53 = load ptr, ptr %4, align 8
  %54 = load ptr, ptr %8, align 8
  %55 = load ptr, ptr %5, align 8
  call void @_ZN7FactMgr15create_cfg_edgeEPK9StatementS2_bb(ptr noundef nonnull align 8 dereferenceable(392) %53, ptr noundef %54, ptr noundef %55, i1 noundef zeroext false, i1 noundef zeroext true)
  %56 = load ptr, ptr %8, align 8
  store ptr %56, ptr %2, align 8
  br label %61

57:                                               ; preds = %49, %45
  %58 = landingpad { ptr, i32 }
          cleanup
  %59 = extractvalue { ptr, i32 } %58, 0
  store ptr %59, ptr %9, align 8
  %60 = extractvalue { ptr, i32 } %58, 1
  store i32 %60, ptr %10, align 4
  call void @_ZdlPv(ptr noundef %46) #13
  br label %63

61:                                               ; preds = %52, %44, %19
  %62 = load ptr, ptr %2, align 8
  ret ptr %62

63:                                               ; preds = %57
  %64 = load ptr, ptr %9, align 8
  %65 = load i32, ptr %10, align 4
  %66 = insertvalue { ptr, i32 } poison, ptr %64, 0
  %67 = insertvalue { ptr, i32 } %66, i32 %65, 1
  resume { ptr, i32 } %67
}