; Function Attrs: mustprogress uwtable
define dso_local noundef ptr @_ZN17StatementContinue11make_randomER9CGContext(ptr noundef nonnull align 8 dereferenceable(216) %0) local_unnamed_addr #3 align 2 personality ptr @__gxx_personality_v0 {
  %2 = tail call noundef ptr @_Z12get_fact_mgrPK9CGContext(ptr noundef nonnull %0)
  %3 = tail call noundef ptr @_ZNK9CGContext17get_current_blockEv(ptr noundef nonnull align 8 dereferenceable(216) %0)
  %4 = tail call noundef ptr @_ZNK5Block12get_last_stmEv(ptr noundef nonnull align 8 dereferenceable(192) %3)
  %5 = icmp eq ptr %4, null
  br i1 %5, label %25, label %.preheader

.preheader:                                       ; preds = %1, %9
  %.01821 = phi ptr [ %11, %9 ], [ %3, %1 ]
  %6 = getelementptr inbounds i8, ptr %.01821, i64 152
  %7 = load i8, ptr %6, align 8
  %8 = and i8 %7, 1
  %.not19 = icmp eq i8 %8, 0
  br i1 %.not19, label %9, label %.critedge

9:                                                ; preds = %.preheader
  %10 = getelementptr inbounds i8, ptr %.01821, i64 24
  %11 = load ptr, ptr %10, align 8
  %.not = icmp eq ptr %11, null
  br i1 %.not, label %.critedge, label %.preheader, !llvm.loop !5

.critedge:                                        ; preds = %9, %.preheader
  %.018.lcssa = phi ptr [ null, %9 ], [ %.01821, %.preheader ]
  %12 = getelementptr inbounds i8, ptr %0, i64 136
  tail call void @_ZN6Effect5clearEv(ptr noundef nonnull align 8 dereferenceable(74) %12)
  %13 = tail call noundef ptr @_Z12get_int_typev()
  %14 = tail call noundef ptr @_ZN10Expression11make_randomER9CGContextPK4TypePK12CVQualifiersbb9eTermType(ptr noundef nonnull align 8 dereferenceable(216) %0, ptr noundef %13, ptr noundef null, i1 noundef zeroext true, i1 noundef zeroext true, i32 noundef 1)
  %15 = load i32, ptr @_ZN5Error8r_error_E, align 4
  %.not20 = icmp eq i32 %15, 0
  br i1 %.not20, label %16, label %25

16:                                               ; preds = %.critedge
  %17 = tail call noalias noundef nonnull dereferenceable(48) ptr @_Znwm(i64 noundef 48) #14
  %18 = invoke noundef ptr @_ZNK9CGContext17get_current_blockEv(ptr noundef nonnull align 8 dereferenceable(216) %0)
          to label %19 unwind label %23

19:                                               ; preds = %16
  invoke void @_ZN9StatementC2E14eStatementTypeP5Block(ptr noundef nonnull align 8 dereferenceable(32) %17, i32 noundef 6, ptr noundef %18)
          to label %20 unwind label %23

20:                                               ; preds = %19
  store ptr getelementptr inbounds ({ [12 x ptr] }, ptr @_ZTV17StatementContinue, i64 0, i32 0, i64 2), ptr %17, align 8
  %21 = getelementptr inbounds i8, ptr %17, i64 32
  store ptr %14, ptr %21, align 8
  %22 = getelementptr inbounds i8, ptr %17, i64 40
  store ptr %.018.lcssa, ptr %22, align 8
  tail call void @_ZN7FactMgr15create_cfg_edgeEPK9StatementS2_bb(ptr noundef nonnull align 8 dereferenceable(392) %2, ptr noundef nonnull %17, ptr noundef nonnull %.018.lcssa, i1 noundef zeroext false, i1 noundef zeroext true)
  br label %25

23:                                               ; preds = %19, %16
  %24 = landingpad { ptr, i32 }
          cleanup
  tail call void @_ZdlPv(ptr noundef nonnull %17) #15
  resume { ptr, i32 } %24

25:                                               ; preds = %.critedge, %1, %20
  %.0 = phi ptr [ %17, %20 ], [ null, %1 ], [ null, %.critedge ]
  ret ptr %.0
}